target datalayout = "e-m:e-p270:32:32-p271:32:32-p272:64:64-i64:64-i128:128-f80:128-n8:16:32:64-S128"
target triple = "x86_64-pc-linux-gnu"

; Function Attrs: mustprogress uwtable
define noundef ptr @_ZN8LightGBM11MultiValBin17CreateMultiValBinEiiidRKSt6vectorIjSaIjEE(i32 noundef %0, i32 noundef %1, i32 noundef %2, double noundef %3, ptr noundef nonnull align 8 dereferenceable(24) %4) #1 align 2 {
  %6 = alloca ptr, align 8
  %7 = alloca i32, align 4
  %8 = alloca i32, align 4
  %9 = alloca i32, align 4
  %10 = alloca double, align 8
  %11 = alloca ptr, align 8
  %12 = alloca double, align 8
  store i32 %0, ptr %7, align 4, !tbaa !11
  store i32 %1, ptr %8, align 4, !tbaa !11
  store i32 %2, ptr %9, align 4, !tbaa !11
  store double %3, ptr %10, align 8, !tbaa !115
  store ptr %4, ptr %11, align 8, !tbaa !196
  %13 = load double, ptr %10, align 8, !tbaa !115
  %14 = fcmp oge double %13, 2.500000e-01
  br i1 %14, label %15, label %25

15:                                               ; preds = %5
  call void @llvm.lifetime.start.p0(i64 8, ptr %12) #5
  %16 = load double, ptr %10, align 8, !tbaa !115
  %17 = fsub double 1.000000e+00, %16
  %18 = load i32, ptr %9, align 4, !tbaa !11
  %19 = sitofp i32 %18 to double
  %20 = fmul double %17, %19
  store double %20, ptr %12, align 8, !tbaa !115
  %21 = load i32, ptr %7, align 4, !tbaa !11
  %22 = load i32, ptr %8, align 4, !tbaa !11
  %23 = load double, ptr %12, align 8, !tbaa !115
  %24 = call noundef ptr @_ZN8LightGBM11MultiValBin23CreateMultiValSparseBinEiid(i32 noundef %21, i32 noundef %22, double noundef %23)
  store ptr %24, ptr %6, align 8
  call void @llvm.lifetime.end.p0(i64 8, ptr %12) #5
  br label %31

25:                                               ; preds = %5
  %26 = load i32, ptr %7, align 4, !tbaa !11
  %27 = load i32, ptr %8, align 4, !tbaa !11
  %28 = load i32, ptr %9, align 4, !tbaa !11
  %29 = load ptr, ptr %11, align 8, !tbaa !196
  %30 = call noundef ptr @_ZN8LightGBM11MultiValBin22CreateMultiValDenseBinEiiiRKSt6vectorIjSaIjEE(i32 noundef %26, i32 noundef %27, i32 noundef %28, ptr noundef nonnull align 8 dereferenceable(24) %29)
  store ptr %30, ptr %6, align 8
  br label %31

31:                                               ; preds = %25, %15
  %32 = load ptr, ptr %6, align 8
  ret ptr %32
}