; Function Attrs: mustprogress uwtable
define noundef nonnull ptr @_ZN8LightGBM11MultiValBin17CreateMultiValBinEiiidRKSt6vectorIjSaIjEE(i32 noundef %0, i32 noundef %1, i32 noundef %2, double noundef %3, ptr noundef nonnull align 8 dereferenceable(24) %4) local_unnamed_addr #1 align 2 {
  %6 = fcmp ult double %3, 2.500000e-01
  br i1 %6, label %12, label %7

7:                                                ; preds = %5
  %8 = fsub double 1.000000e+00, %3
  %9 = sitofp i32 %2 to double
  %10 = fmul double %8, %9
  %11 = tail call noundef ptr @_ZN8LightGBM11MultiValBin23CreateMultiValSparseBinEiid(i32 noundef %0, i32 noundef %1, double noundef %10)
  br label %14

12:                                               ; preds = %5
  %13 = tail call noundef ptr @_ZN8LightGBM11MultiValBin22CreateMultiValDenseBinEiiiRKSt6vectorIjSaIjEE(i32 noundef %0, i32 noundef %1, i32 noundef %2, ptr noundef nonnull align 8 dereferenceable(24) %4)
  br label %14

14:                                               ; preds = %12, %7
  %.0 = phi ptr [ %11, %7 ], [ %13, %12 ]
  ret ptr %.0
}